target datalayout = "e-m:e-p270:32:32-p271:32:32-p272:64:64-i64:64-i128:128-f80:128-n8:16:32:64-S128"
target triple = "x86_64-pc-linux-gnu"

%union.__CONST_SOCKADDR_ARG = type { ptr }
%struct.sockaddr = type { i16, [14 x i8] }

; Function Attrs: nounwind uwtable
define ptr @evconnlistener_new_bind(ptr noundef %0, ptr noundef %1, ptr noundef %2, i32 noundef %3, i32 noundef %4, ptr noundef %5, i32 noundef %6) #0 {
  %8 = alloca ptr, align 8
  %9 = alloca ptr, align 8
  %10 = alloca ptr, align 8
  %11 = alloca ptr, align 8
  %12 = alloca i32, align 4
  %13 = alloca i32, align 4
  %14 = alloca ptr, align 8
  %15 = alloca i32, align 4
  %16 = alloca ptr, align 8
  %17 = alloca i32, align 4
  %18 = alloca i32, align 4
  %19 = alloca i32, align 4
  %20 = alloca i32, align 4
  %21 = alloca %union.__CONST_SOCKADDR_ARG, align 8
  %22 = alloca i32, align 4
  store ptr %0, ptr %9, align 8
  store ptr %1, ptr %10, align 8
  store ptr %2, ptr %11, align 8
  store i32 %3, ptr %12, align 4
  store i32 %4, ptr %13, align 4
  store ptr %5, ptr %14, align 8
  store i32 %6, ptr %15, align 4
  call void @llvm.lifetime.start.p0(i64 8, ptr %16) #5
  call void @llvm.lifetime.start.p0(i64 4, ptr %17) #5
  call void @llvm.lifetime.start.p0(i64 4, ptr %18) #5
  %23 = load ptr, ptr %14, align 8
  %24 = icmp ne ptr %23, null
  br i1 %24, label %25, label %30

25:                                               ; preds = %7
  %26 = load ptr, ptr %14, align 8
  %27 = getelementptr inbounds nuw %struct.sockaddr, ptr %26, i32 0, i32 0
  %28 = load i16, ptr %27, align 2
  %29 = zext i16 %28 to i32
  br label %31

30:                                               ; preds = %7
  br label %31

31:                                               ; preds = %30, %25
  %32 = phi i32 [ %29, %25 ], [ 0, %30 ]
  store i32 %32, ptr %18, align 4
  call void @llvm.lifetime.start.p0(i64 4, ptr %19) #5
  store i32 2049, ptr %19, align 4
  %33 = load i32, ptr %13, align 4
  %34 = icmp eq i32 %33, 0
  br i1 %34, label %35, label %36

35:                                               ; preds = %31
  store ptr null, ptr %8, align 8
  store i32 1, ptr %20, align 4
  br label %161

36:                                               ; preds = %31
  %37 = load i32, ptr %12, align 4
  %38 = and i32 %37, 4
  %39 = icmp ne i32 %38, 0
  br i1 %39, label %40, label %43

40:                                               ; preds = %36
  %41 = load i32, ptr %19, align 4
  %42 = or i32 %41, 524288
  store i32 %42, ptr %19, align 4
  br label %43

43:                                               ; preds = %40, %36
  %44 = load i32, ptr %18, align 4
  %45 = load i32, ptr %19, align 4
  %46 = call i32 @evutil_socket_(i32 noundef %44, i32 noundef %45, i32 noundef 0)
  store i32 %46, ptr %17, align 4
  %47 = load i32, ptr %17, align 4
  %48 = icmp eq i32 %47, -1
  br i1 %48, label %49, label %50

49:                                               ; preds = %43
  store ptr null, ptr %8, align 8
  store i32 1, ptr %20, align 4
  br label %161

50:                                               ; preds = %43
  %51 = load i32, ptr %18, align 4
  %52 = icmp ne i32 %51, 1
  br i1 %52, label %53, label %59

53:                                               ; preds = %50
  %54 = load i32, ptr %17, align 4
  %55 = call i32 @evutil_set_tcp_keepalive(i32 noundef %54, i32 noundef 1, i32 noundef 300)
  %56 = icmp slt i32 %55, 0
  br i1 %56, label %57, label %58

57:                                               ; preds = %53
  br label %147

58:                                               ; preds = %53
  br label %59

59:                                               ; preds = %58, %50
  %60 = load i32, ptr %12, align 4
  %61 = and i32 %60, 8
  %62 = icmp ne i32 %61, 0
  br i1 %62, label %63, label %75

63:                                               ; preds = %59
  %64 = load i32, ptr %18, align 4
  %65 = icmp eq i32 %64, 1
  br i1 %65, label %66, label %69

66:                                               ; preds = %63
  %67 = load i32, ptr %17, align 4
  %68 = call i32 @evutil_closesocket(i32 noundef %67)
  store ptr null, ptr %8, align 8
  store i32 1, ptr %20, align 4
  br label %161

69:                                               ; preds = %63
  %70 = load i32, ptr %17, align 4
  %71 = call i32 @evutil_make_listen_socket_reuseable(i32 noundef %70)
  %72 = icmp slt i32 %71, 0
  br i1 %72, label %73, label %74

73:                                               ; preds = %69
  br label %147

74:                                               ; preds = %69
  br label %75

75:                                               ; preds = %74, %59
  %76 = load i32, ptr %12, align 4
  %77 = and i32 %76, 128
  %78 = icmp ne i32 %77, 0
  br i1 %78, label %79, label %91

79:                                               ; preds = %75
  %80 = load i32, ptr %18, align 4
  %81 = icmp eq i32 %80, 1
  br i1 %81, label %82, label %85

82:                                               ; preds = %79
  %83 = load i32, ptr %17, align 4
  %84 = call i32 @evutil_closesocket(i32 noundef %83)
  store ptr null, ptr %8, align 8
  store i32 1, ptr %20, align 4
  br label %161

85:                                               ; preds = %79
  %86 = load i32, ptr %17, align 4
  %87 = call i32 @evutil_make_listen_socket_reuseable_port(i32 noundef %86)
  %88 = icmp slt i32 %87, 0
  br i1 %88, label %89, label %90

89:                                               ; preds = %85
  br label %147

90:                                               ; preds = %85
  br label %91

91:                                               ; preds = %90, %75
  %92 = load i32, ptr %12, align 4
  %93 = and i32 %92, 64
  %94 = icmp ne i32 %93, 0
  br i1 %94, label %95, label %101

95:                                               ; preds = %91
  %96 = load i32, ptr %17, align 4
  %97 = call i32 @evutil_make_tcp_listen_socket_deferred(i32 noundef %96)
  %98 = icmp slt i32 %97, 0
  br i1 %98, label %99, label %100

99:                                               ; preds = %95
  br label %147

100:                                              ; preds = %95
  br label %101

101:                                              ; preds = %100, %91
  %102 = load i32, ptr %12, align 4
  %103 = and i32 %102, 256
  %104 = icmp ne i32 %103, 0
  br i1 %104, label %105, label %111

105:                                              ; preds = %101
  %106 = load i32, ptr %17, align 4
  %107 = call i32 @evutil_make_listen_socket_ipv6only(i32 noundef %106)
  %108 = icmp slt i32 %107, 0
  br i1 %108, label %109, label %110

109:                                              ; preds = %105
  br label %147

110:                                              ; preds = %105
  br label %111

111:                                              ; preds = %110, %101
  %112 = load i32, ptr %12, align 4
  %113 = and i32 %112, 512
  %114 = icmp ne i32 %113, 0
  br i1 %114, label %115, label %121

115:                                              ; preds = %111
  %116 = load i32, ptr %17, align 4
  %117 = call i32 @evutil_make_listen_socket_not_ipv6only(i32 noundef %116)
  %118 = icmp slt i32 %117, 0
  br i1 %118, label %119, label %120

119:                                              ; preds = %115
  br label %147

120:                                              ; preds = %115
  br label %121

121:                                              ; preds = %120, %111
  %122 = load ptr, ptr %14, align 8
  %123 = icmp ne ptr %122, null
  br i1 %123, label %124, label %134

124:                                              ; preds = %121
  %125 = load i32, ptr %17, align 4
  %126 = load ptr, ptr %14, align 8
  store ptr %126, ptr %21, align 8
  %127 = load i32, ptr %15, align 4
  %128 = getelementptr inbounds nuw %union.__CONST_SOCKADDR_ARG, ptr %21, i32 0, i32 0
  %129 = load ptr, ptr %128, align 8
  %130 = call i32 @bind(i32 noundef %125, ptr %129, i32 noundef %127) #5
  %131 = icmp slt i32 %130, 0
  br i1 %131, label %132, label %133

132:                                              ; preds = %124
  br label %147

133:                                              ; preds = %124
  br label %134

134:                                              ; preds = %133, %121
  %135 = load ptr, ptr %9, align 8
  %136 = load ptr, ptr %10, align 8
  %137 = load ptr, ptr %11, align 8
  %138 = load i32, ptr %12, align 4
  %139 = load i32, ptr %13, align 4
  %140 = load i32, ptr %17, align 4
  %141 = call ptr @evconnlistener_new(ptr noundef %135, ptr noundef %136, ptr noundef %137, i32 noundef %138, i32 noundef %139, i32 noundef %140)
  store ptr %141, ptr %16, align 8
  %142 = load ptr, ptr %16, align 8
  %143 = icmp ne ptr %142, null
  br i1 %143, label %145, label %144

144:                                              ; preds = %134
  br label %147

145:                                              ; preds = %134
  %146 = load ptr, ptr %16, align 8
  store ptr %146, ptr %8, align 8
  store i32 1, ptr %20, align 4
  br label %161

147:                                              ; preds = %144, %132, %119, %109, %99, %89, %73, %57
  call void @llvm.lifetime.start.p0(i64 4, ptr %22) #5
  %148 = call ptr @__errno_location() #6
  %149 = load i32, ptr %148, align 4
  store i32 %149, ptr %22, align 4
  %150 = load i32, ptr %17, align 4
  %151 = call i32 @evutil_closesocket(i32 noundef %150)
  %152 = load i32, ptr %22, align 4
  %153 = icmp ne i32 %152, 0
  br i1 %153, label %154, label %160

154:                                              ; preds = %147
  br label %155

155:                                              ; preds = %154
  %156 = load i32, ptr %22, align 4
  %157 = call ptr @__errno_location() #6
  store i32 %156, ptr %157, align 4
  br label %158

158:                                              ; preds = %155
  br label %159

159:                                              ; preds = %158
  br label %160

160:                                              ; preds = %159, %147
  store ptr null, ptr %8, align 8
  store i32 1, ptr %20, align 4
  call void @llvm.lifetime.end.p0(i64 4, ptr %22) #5
  br label %161

161:                                              ; preds = %160, %145, %82, %66, %49, %35
  call void @llvm.lifetime.end.p0(i64 4, ptr %19) #5
  call void @llvm.lifetime.end.p0(i64 4, ptr %18) #5
  call void @llvm.lifetime.end.p0(i64 4, ptr %17) #5
  call void @llvm.lifetime.end.p0(i64 8, ptr %16) #5
  %162 = load ptr, ptr %8, align 8
  ret ptr %162
}