; Function Attrs: nounwind uwtable
define ptr @evconnlistener_new_bind(ptr noundef %0, ptr noundef %1, ptr noundef %2, i32 noundef %3, i32 noundef %4, ptr noundef %5, i32 noundef %6) local_unnamed_addr #0 {
  %.not = icmp eq ptr %5, null
  br i1 %.not, label %11, label %8

8:                                                ; preds = %7
  %9 = load i16, ptr %5, align 2
  %10 = zext i16 %9 to i32
  br label %11

11:                                               ; preds = %7, %8
  %12 = phi i32 [ %10, %8 ], [ 0, %7 ]
  %13 = icmp eq i32 %4, 0
  br i1 %13, label %63, label %14

14:                                               ; preds = %11
  %15 = and i32 %3, 4
  %.not45 = icmp eq i32 %15, 0
  %spec.select = select i1 %.not45, i32 2049, i32 526337
  %16 = tail call i32 @evutil_socket_(i32 noundef %12, i32 noundef %spec.select, i32 noundef 0) #6
  %17 = icmp eq i32 %16, -1
  br i1 %17, label %63, label %18

18:                                               ; preds = %14
  %.not46 = icmp eq i32 %12, 1
  br i1 %.not46, label %22, label %19

19:                                               ; preds = %18
  %20 = tail call i32 @evutil_set_tcp_keepalive(i32 noundef %16, i32 noundef 1, i32 noundef 300) #6
  %21 = icmp slt i32 %20, 0
  br i1 %21, label %58, label %.thread

22:                                               ; preds = %18
  %23 = and i32 %3, 8
  %.not47 = icmp eq i32 %23, 0
  br i1 %.not47, label %.thread56, label %25

.thread:                                          ; preds = %19
  %24 = and i32 %3, 8
  %.not4754 = icmp eq i32 %24, 0
  br i1 %.not4754, label %30, label %27

25:                                               ; preds = %22
  %26 = tail call i32 @evutil_closesocket(i32 noundef %16) #6
  br label %63

27:                                               ; preds = %.thread
  %28 = tail call i32 @evutil_make_listen_socket_reuseable(i32 noundef %16) #6
  %29 = icmp slt i32 %28, 0
  br i1 %29, label %58, label %30

30:                                               ; preds = %.thread, %27
  %31 = and i32 %3, 128
  %.not48 = icmp eq i32 %31, 0
  br i1 %.not48, label %37, label %34

.thread56:                                        ; preds = %22
  %32 = and i32 %3, 128
  %.not4857 = icmp eq i32 %32, 0
  br i1 %.not4857, label %37, label %.thread58

.thread58:                                        ; preds = %.thread56
  %33 = tail call i32 @evutil_closesocket(i32 noundef %16) #6
  br label %63

34:                                               ; preds = %30
  %35 = tail call i32 @evutil_make_listen_socket_reuseable_port(i32 noundef %16) #6
  %36 = icmp slt i32 %35, 0
  br i1 %36, label %58, label %37

37:                                               ; preds = %.thread56, %34, %30
  %38 = and i32 %3, 64
  %.not49 = icmp eq i32 %38, 0
  br i1 %.not49, label %42, label %39

39:                                               ; preds = %37
  %40 = tail call i32 @evutil_make_tcp_listen_socket_deferred(i32 noundef %16) #6
  %41 = icmp slt i32 %40, 0
  br i1 %41, label %58, label %42

42:                                               ; preds = %39, %37
  %43 = and i32 %3, 256
  %.not50 = icmp eq i32 %43, 0
  br i1 %.not50, label %47, label %44

44:                                               ; preds = %42
  %45 = tail call i32 @evutil_make_listen_socket_ipv6only(i32 noundef %16) #6
  %46 = icmp slt i32 %45, 0
  br i1 %46, label %58, label %47

47:                                               ; preds = %44, %42
  %48 = and i32 %3, 512
  %.not51 = icmp eq i32 %48, 0
  br i1 %.not51, label %52, label %49

49:                                               ; preds = %47
  %50 = tail call i32 @evutil_make_listen_socket_not_ipv6only(i32 noundef %16) #6
  %51 = icmp slt i32 %50, 0
  br i1 %51, label %58, label %52

52:                                               ; preds = %49, %47
  br i1 %.not, label %56, label %53

53:                                               ; preds = %52
  %54 = tail call i32 @bind(i32 noundef %16, ptr nonnull %5, i32 noundef %6) #6
  %55 = icmp slt i32 %54, 0
  br i1 %55, label %58, label %56

56:                                               ; preds = %53, %52
  %57 = tail call ptr @evconnlistener_new(ptr noundef %0, ptr noundef %1, ptr noundef %2, i32 noundef %3, i32 noundef %4, i32 noundef %16)
  %.not52 = icmp eq ptr %57, null
  br i1 %.not52, label %58, label %63

58:                                               ; preds = %56, %53, %49, %44, %39, %34, %27, %19
  %59 = tail call ptr @__errno_location() #7
  %60 = load i32, ptr %59, align 4
  %61 = tail call i32 @evutil_closesocket(i32 noundef %16) #6
  %.not53 = icmp eq i32 %60, 0
  br i1 %.not53, label %63, label %62

62:                                               ; preds = %58
  store i32 %60, ptr %59, align 4
  br label %63

63:                                               ; preds = %58, %62, %56, %14, %11, %.thread58, %25
  %.0 = phi ptr [ null, %25 ], [ null, %.thread58 ], [ null, %11 ], [ null, %14 ], [ %57, %56 ], [ null, %62 ], [ null, %58 ]
  ret ptr %.0
}